; ModuleID = '12/834.c'
source_filename = "12/834.c"
target datalayout = "e-m:e-p270:32:32-p271:32:32-p272:64:64-i64:64-f80:128-n8:16:32:64-S128"
target triple = "x86_64-pc-linux-gnu"

@.str = private unnamed_addr constant [3 x i8] c"%d\00", align 1
@.str.1 = private unnamed_addr constant [4 x i8] c"%d\0A\00", align 1

; Function Attrs: noinline nounwind uwtable
define dso_local i32 @main() #0 {
  %1 = alloca i32, align 4
  %2 = alloca i32, align 4
  %3 = alloca [16 x [16 x i32]], align 16
  %4 = alloca i32, align 4
  %5 = alloca i32, align 4
  %6 = alloca [15 x i32], align 16
  %7 = alloca i32, align 4
  %8 = alloca i32, align 4
  %9 = alloca [16 x i32], align 16
  store i32 0, i32* %1, align 4
  %10 = bitcast [15 x i32]* %6 to i8*
  call void @llvm.memset.p0i8.i64(i8* align 16 %10, i8 0, i64 60, i1 false)
  store i32 0, i32* %7, align 4
  %11 = bitcast [16 x i32]* %9 to i8*
  call void @llvm.memset.p0i8.i64(i8* align 16 %11, i8 0, i64 64, i1 false)
  store i32 0, i32* %4, align 4
  br label %12

12:                                               ; preds = %71, %0
  %13 = load i32, i32* %4, align 4
  %14 = icmp sle i32 %13, 10
  br i1 %14, label %15, label %74

15:                                               ; preds = %12
  store i32 0, i32* %5, align 4
  br label %16

16:                                               ; preds = %55, %15
  %17 = load i32, i32* %5, align 4
  %18 = icmp sle i32 %17, 15
  br i1 %18, label %19, label %58

19:                                               ; preds = %16
  %20 = load i32, i32* %4, align 4
  %21 = sext i32 %20 to i64
  %22 = getelementptr inbounds [16 x [16 x i32]], [16 x [16 x i32]]* %3, i64 0, i64 %21
  %23 = load i32, i32* %5, align 4
  %24 = sext i32 %23 to i64
  %25 = getelementptr inbounds [16 x i32], [16 x i32]* %22, i64 0, i64 %24
  %26 = call i32 (i8*, ...) @__isoc99_scanf(i8* getelementptr inbounds ([3 x i8], [3 x i8]* @.str, i64 0, i64 0), i32* %25)
  %27 = load i32, i32* %4, align 4
  %28 = sext i32 %27 to i64
  %29 = getelementptr inbounds [16 x [16 x i32]], [16 x [16 x i32]]* %3, i64 0, i64 %28
  %30 = load i32, i32* %5, align 4
  %31 = sext i32 %30 to i64
  %32 = getelementptr inbounds [16 x i32], [16 x i32]* %29, i64 0, i64 %31
  %33 = load i32, i32* %32, align 4
  %34 = icmp eq i32 %33, -1
  br i1 %34, label %35, label %36

35:                                               ; preds = %19
  br label %58

36:                                               ; preds = %19
  %37 = load i32, i32* %4, align 4
  %38 = sext i32 %37 to i64
  %39 = getelementptr inbounds [16 x [16 x i32]], [16 x [16 x i32]]* %3, i64 0, i64 %38
  %40 = load i32, i32* %5, align 4
  %41 = sext i32 %40 to i64
  %42 = getelementptr inbounds [16 x i32], [16 x i32]* %39, i64 0, i64 %41
  %43 = load i32, i32* %42, align 4
  %44 = icmp eq i32 %43, 0
  br i1 %44, label %45, label %46

45:                                               ; preds = %36
  br label %58

46:                                               ; preds = %36
  %47 = load i32, i32* %4, align 4
  %48 = sext i32 %47 to i64
  %49 = getelementptr inbounds [15 x i32], [15 x i32]* %6, i64 0, i64 %48
  %50 = load i32, i32* %49, align 4
  %51 = add nsw i32 %50, 1
  %52 = load i32, i32* %4, align 4
  %53 = sext i32 %52 to i64
  %54 = getelementptr inbounds [15 x i32], [15 x i32]* %6, i64 0, i64 %53
  store i32 %51, i32* %54, align 4
  br label %55

55:                                               ; preds = %46
  %56 = load i32, i32* %5, align 4
  %57 = add nsw i32 %56, 1
  store i32 %57, i32* %5, align 4
  br label %16

58:                                               ; preds = %45, %35, %16
  %59 = load i32, i32* %4, align 4
  %60 = sext i32 %59 to i64
  %61 = getelementptr inbounds [16 x [16 x i32]], [16 x [16 x i32]]* %3, i64 0, i64 %60
  %62 = load i32, i32* %5, align 4
  %63 = sext i32 %62 to i64
  %64 = getelementptr inbounds [16 x i32], [16 x i32]* %61, i64 0, i64 %63
  %65 = load i32, i32* %64, align 4
  %66 = icmp eq i32 %65, -1
  br i1 %66, label %67, label %68

67:                                               ; preds = %58
  br label %74

68:                                               ; preds = %58
  %69 = load i32, i32* %7, align 4
  %70 = add nsw i32 %69, 1
  store i32 %70, i32* %7, align 4
  br label %71

71:                                               ; preds = %68
  %72 = load i32, i32* %4, align 4
  %73 = add nsw i32 %72, 1
  store i32 %73, i32* %4, align 4
  br label %12

74:                                               ; preds = %67, %12
  store i32 0, i32* %4, align 4
  br label %75

75:                                               ; preds = %146, %74
  %76 = load i32, i32* %4, align 4
  %77 = load i32, i32* %7, align 4
  %78 = icmp slt i32 %76, %77
  br i1 %78, label %79, label %149

79:                                               ; preds = %75
  store i32 0, i32* %5, align 4
  br label %80

80:                                               ; preds = %142, %79
  %81 = load i32, i32* %5, align 4
  %82 = load i32, i32* %4, align 4
  %83 = sext i32 %82 to i64
  %84 = getelementptr inbounds [15 x i32], [15 x i32]* %6, i64 0, i64 %83
  %85 = load i32, i32* %84, align 4
  %86 = icmp slt i32 %81, %85
  br i1 %86, label %87, label %145

87:                                               ; preds = %80
  %88 = load i32, i32* %5, align 4
  %89 = add nsw i32 %88, 1
  store i32 %89, i32* %8, align 4
  br label %90

90:                                               ; preds = %138, %87
  %91 = load i32, i32* %8, align 4
  %92 = load i32, i32* %4, align 4
  %93 = sext i32 %92 to i64
  %94 = getelementptr inbounds [15 x i32], [15 x i32]* %6, i64 0, i64 %93
  %95 = load i32, i32* %94, align 4
  %96 = icmp sle i32 %91, %95
  br i1 %96, label %97, label %141

97:                                               ; preds = %90
  %98 = load i32, i32* %4, align 4
  %99 = sext i32 %98 to i64
  %100 = getelementptr inbounds [16 x [16 x i32]], [16 x [16 x i32]]* %3, i64 0, i64 %99
  %101 = load i32, i32* %5, align 4
  %102 = sext i32 %101 to i64
  %103 = getelementptr inbounds [16 x i32], [16 x i32]* %100, i64 0, i64 %102
  %104 = load i32, i32* %103, align 4
  %105 = load i32, i32* %4, align 4
  %106 = sext i32 %105 to i64
  %107 = getelementptr inbounds [16 x [16 x i32]], [16 x [16 x i32]]* %3, i64 0, i64 %106
  %108 = load i32, i32* %8, align 4
  %109 = sext i32 %108 to i64
  %110 = getelementptr inbounds [16 x i32], [16 x i32]* %107, i64 0, i64 %109
  %111 = load i32, i32* %110, align 4
  %112 = mul nsw i32 2, %111
  %113 = icmp eq i32 %104, %112
  br i1 %113, label %131, label %114

114:                                              ; preds = %97
  %115 = load i32, i32* %4, align 4
  %116 = sext i32 %115 to i64
  %117 = getelementptr inbounds [16 x [16 x i32]], [16 x [16 x i32]]* %3, i64 0, i64 %116
  %118 = load i32, i32* %8, align 4
  %119 = sext i32 %118 to i64
  %120 = getelementptr inbounds [16 x i32], [16 x i32]* %117, i64 0, i64 %119
  %121 = load i32, i32* %120, align 4
  %122 = load i32, i32* %4, align 4
  %123 = sext i32 %122 to i64
  %124 = getelementptr inbounds [16 x [16 x i32]], [16 x [16 x i32]]* %3, i64 0, i64 %123
  %125 = load i32, i32* %5, align 4
  %126 = sext i32 %125 to i64
  %127 = getelementptr inbounds [16 x i32], [16 x i32]* %124, i64 0, i64 %126
  %128 = load i32, i32* %127, align 4
  %129 = mul nsw i32 2, %128
  %130 = icmp eq i32 %121, %129
  br i1 %130, label %131, label %137

131:                                              ; preds = %114, %97
  %132 = load i32, i32* %4, align 4
  %133 = sext i32 %132 to i64
  %134 = getelementptr inbounds [16 x i32], [16 x i32]* %9, i64 0, i64 %133
  %135 = load i32, i32* %134, align 4
  %136 = add nsw i32 %135, 1
  store i32 %136, i32* %134, align 4
  br label %137

137:                                              ; preds = %131, %114
  br label %138

138:                                              ; preds = %137
  %139 = load i32, i32* %8, align 4
  %140 = add nsw i32 %139, 1
  store i32 %140, i32* %8, align 4
  br label %90

141:                                              ; preds = %90
  br label %142

142:                                              ; preds = %141
  %143 = load i32, i32* %5, align 4
  %144 = add nsw i32 %143, 1
  store i32 %144, i32* %5, align 4
  br label %80

145:                                              ; preds = %80
  br label %146

146:                                              ; preds = %145
  %147 = load i32, i32* %4, align 4
  %148 = add nsw i32 %147, 1
  store i32 %148, i32* %4, align 4
  br label %75

149:                                              ; preds = %75
  store i32 0, i32* %4, align 4
  br label %150

150:                                              ; preds = %160, %149
  %151 = load i32, i32* %4, align 4
  %152 = load i32, i32* %7, align 4
  %153 = icmp slt i32 %151, %152
  br i1 %153, label %154, label %163

154:                                              ; preds = %150
  %155 = load i32, i32* %4, align 4
  %156 = sext i32 %155 to i64
  %157 = getelementptr inbounds [16 x i32], [16 x i32]* %9, i64 0, i64 %156
  %158 = load i32, i32* %157, align 4
  %159 = call i32 (i8*, ...) @printf(i8* getelementptr inbounds ([4 x i8], [4 x i8]* @.str.1, i64 0, i64 0), i32 %158)
  br label %160

160:                                              ; preds = %154
  %161 = load i32, i32* %4, align 4
  %162 = add nsw i32 %161, 1
  store i32 %162, i32* %4, align 4
  br label %150

163:                                              ; preds = %150
  ret i32 0
}

; Function Attrs: argmemonly nounwind willreturn
declare void @llvm.memset.p0i8.i64(i8* nocapture writeonly, i8, i64, i1 immarg) #1

declare dso_local i32 @__isoc99_scanf(i8*, ...) #2

declare dso_local i32 @printf(i8*, ...) #2


!llvm.module.flags = !{!0}
!llvm.ident = !{!1}

!0 = !{i32 1, !"wchar_size", i32 4}
!1 = !{!"clang version 10.0.0-4ubuntu1 "}
